target datalayout = "e-m:e-p270:32:32-p271:32:32-p272:64:64-i64:64-i128:128-f80:128-n8:16:32:64-S128"
target triple = "x86_64-pc-linux-gnu"

%struct.global_State = type { ptr, ptr, %struct.GCState, %struct.GCstr, i8, i8, i8, i8, %struct.StrInternState, i32, %struct.GCRef, %struct.SBuf, %union.TValue, %union.TValue, %struct.Node, %union.TValue, %struct.GCupval, i32, i32, ptr, ptr, ptr, i32, i32, %struct.GCRef, %struct.MRef, %struct.MRef, %struct.PRNGState, [39 x %struct.GCRef] }
%struct.GCState = type { i64, i64, i8, i8, i8, i8, i32, %struct.GCRef, %struct.MRef, %struct.GCRef, %struct.GCRef, %struct.GCRef, %struct.GCRef, i64, i64, i32, i32, %struct.MRef }
%struct.GCstr = type { %struct.GCRef, i8, i8, i8, i8, i32, i32, i32 }
%struct.StrInternState = type { ptr, i32, i32, i32, i8, i8, i8, i8, i64 }
%struct.SBuf = type { ptr, ptr, ptr, %struct.MRef }
%struct.Node = type { %union.TValue, %union.TValue, %struct.MRef }
%union.TValue = type { i64 }
%struct.GCupval = type { %struct.GCRef, i8, i8, i8, i8, %union.anon, %struct.MRef, i32 }
%union.anon = type { %struct.anon.1 }
%struct.anon.1 = type { %struct.GCRef, %struct.GCRef }
%struct.GCRef = type { i64 }
%struct.MRef = type { i64 }
%struct.PRNGState = type { [4 x i64] }
%struct.lua_State = type { %struct.GCRef, i8, i8, i8, i8, %struct.MRef, %struct.GCRef, ptr, ptr, %struct.MRef, %struct.MRef, %struct.GCRef, %struct.GCRef, ptr, i32 }
%struct.GChead = type { %struct.GCRef, i8, i8, i8, i8, %struct.GCRef, %struct.GCRef, %struct.GCRef }

@gc_freefunc = internal constant [9 x ptr] [ptr @lj_str_free, ptr @lj_func_freeuv, ptr @lj_state_free, ptr @lj_func_freeproto, ptr @lj_func_free, ptr @lj_trace_free, ptr @lj_cdata_free, ptr @lj_tab_free, ptr @lj_udata_free], align 16

; Function Attrs: nounwind uwtable
define internal ptr @gc_sweep(ptr noundef %0, ptr noundef %1, i32 noundef %2) #0 {
  %4 = alloca ptr, align 8
  %5 = alloca ptr, align 8
  %6 = alloca i32, align 4
  %7 = alloca i32, align 4
  %8 = alloca ptr, align 8
  store ptr %0, ptr %4, align 8, !tbaa !4
  store ptr %1, ptr %5, align 8, !tbaa !26
  store i32 %2, ptr %6, align 4, !tbaa !9
  call void @llvm.lifetime.start.p0(i64 4, ptr %7) #7
  %9 = load ptr, ptr %4, align 8, !tbaa !4
  %10 = getelementptr inbounds nuw %struct.global_State, ptr %9, i32 0, i32 2
  %11 = getelementptr inbounds nuw %struct.GCState, ptr %10, i32 0, i32 2
  %12 = load i8, ptr %11, align 8, !tbaa !44
  %13 = zext i8 %12 to i32
  %14 = xor i32 %13, 3
  store i32 %14, ptr %7, align 4, !tbaa !9
  call void @llvm.lifetime.start.p0(i64 8, ptr %8) #7
  br label %15

15:                                               ; preds = %100, %3
  %16 = load ptr, ptr %5, align 8, !tbaa !26
  %17 = getelementptr inbounds nuw %struct.GCRef, ptr %16, i32 0, i32 0
  %18 = load i64, ptr %17, align 8, !tbaa !27
  %19 = inttoptr i64 %18 to ptr
  store ptr %19, ptr %8, align 8, !tbaa !28
  %20 = icmp ne ptr %19, null
  br i1 %20, label %21, label %25

21:                                               ; preds = %15
  %22 = load i32, ptr %6, align 4, !tbaa !9
  %23 = add i32 %22, -1
  store i32 %23, ptr %6, align 4, !tbaa !9
  %24 = icmp ugt i32 %22, 0
  br label %25

25:                                               ; preds = %21, %15
  %26 = phi i1 [ false, %15 ], [ %24, %21 ]
  br i1 %26, label %27, label %101

27:                                               ; preds = %25
  %28 = load ptr, ptr %8, align 8, !tbaa !28
  %29 = getelementptr inbounds nuw %struct.GChead, ptr %28, i32 0, i32 2
  %30 = load i8, ptr %29, align 1, !tbaa !30
  %31 = zext i8 %30 to i32
  %32 = icmp eq i32 %31, 6
  br i1 %32, label %33, label %38

33:                                               ; preds = %27
  %34 = load ptr, ptr %4, align 8, !tbaa !4
  %35 = load ptr, ptr %8, align 8, !tbaa !28
  %36 = getelementptr inbounds nuw %struct.lua_State, ptr %35, i32 0, i32 11
  %37 = call ptr @gc_sweep(ptr noundef %34, ptr noundef %36, i32 noundef -1)
  br label %38

38:                                               ; preds = %33, %27
  %39 = load ptr, ptr %8, align 8, !tbaa !28
  %40 = getelementptr inbounds nuw %struct.GChead, ptr %39, i32 0, i32 1
  %41 = load i8, ptr %40, align 8, !tbaa !30
  %42 = zext i8 %41 to i32
  %43 = xor i32 %42, 3
  %44 = load i32, ptr %7, align 4, !tbaa !9
  %45 = and i32 %43, %44
  %46 = icmp ne i32 %45, 0
  br i1 %46, label %47, label %65

47:                                               ; preds = %38
  %48 = load ptr, ptr %8, align 8, !tbaa !28
  %49 = getelementptr inbounds nuw %struct.GChead, ptr %48, i32 0, i32 1
  %50 = load i8, ptr %49, align 8, !tbaa !30
  %51 = zext i8 %50 to i32
  %52 = and i32 %51, 248
  %53 = load ptr, ptr %4, align 8, !tbaa !4
  %54 = getelementptr inbounds nuw %struct.global_State, ptr %53, i32 0, i32 2
  %55 = getelementptr inbounds nuw %struct.GCState, ptr %54, i32 0, i32 2
  %56 = load i8, ptr %55, align 8, !tbaa !44
  %57 = zext i8 %56 to i32
  %58 = and i32 %57, 3
  %59 = or i32 %52, %58
  %60 = trunc i32 %59 to i8
  %61 = load ptr, ptr %8, align 8, !tbaa !28
  %62 = getelementptr inbounds nuw %struct.GChead, ptr %61, i32 0, i32 1
  store i8 %60, ptr %62, align 8, !tbaa !30
  %63 = load ptr, ptr %8, align 8, !tbaa !28
  %64 = getelementptr inbounds nuw %struct.GChead, ptr %63, i32 0, i32 0
  store ptr %64, ptr %5, align 8, !tbaa !26
  br label %100

65:                                               ; preds = %38
  %66 = load ptr, ptr %8, align 8, !tbaa !28
  %67 = getelementptr inbounds nuw %struct.GChead, ptr %66, i32 0, i32 0
  %68 = getelementptr inbounds nuw %struct.GCRef, ptr %67, i32 0, i32 0
  %69 = load i64, ptr %68, align 8, !tbaa !30
  %70 = load ptr, ptr %5, align 8, !tbaa !26
  %71 = getelementptr inbounds nuw %struct.GCRef, ptr %70, i32 0, i32 0
  store i64 %69, ptr %71, align 8, !tbaa !27
  %72 = load ptr, ptr %8, align 8, !tbaa !28
  %73 = load ptr, ptr %4, align 8, !tbaa !4
  %74 = getelementptr inbounds nuw %struct.global_State, ptr %73, i32 0, i32 2
  %75 = getelementptr inbounds nuw %struct.GCState, ptr %74, i32 0, i32 7
  %76 = getelementptr inbounds nuw %struct.GCRef, ptr %75, i32 0, i32 0
  %77 = load i64, ptr %76, align 8, !tbaa !43
  %78 = inttoptr i64 %77 to ptr
  %79 = icmp eq ptr %72, %78
  br i1 %79, label %80, label %89

80:                                               ; preds = %65
  %81 = load ptr, ptr %8, align 8, !tbaa !28
  %82 = getelementptr inbounds nuw %struct.GChead, ptr %81, i32 0, i32 0
  %83 = getelementptr inbounds nuw %struct.GCRef, ptr %82, i32 0, i32 0
  %84 = load i64, ptr %83, align 8, !tbaa !30
  %85 = load ptr, ptr %4, align 8, !tbaa !4
  %86 = getelementptr inbounds nuw %struct.global_State, ptr %85, i32 0, i32 2
  %87 = getelementptr inbounds nuw %struct.GCState, ptr %86, i32 0, i32 7
  %88 = getelementptr inbounds nuw %struct.GCRef, ptr %87, i32 0, i32 0
  store i64 %84, ptr %88, align 8, !tbaa !43
  br label %89

89:                                               ; preds = %80, %65
  %90 = load ptr, ptr %8, align 8, !tbaa !28
  %91 = getelementptr inbounds nuw %struct.GChead, ptr %90, i32 0, i32 2
  %92 = load i8, ptr %91, align 1, !tbaa !30
  %93 = zext i8 %92 to i32
  %94 = sub i32 %93, 4
  %95 = zext i32 %94 to i64
  %96 = getelementptr inbounds nuw [9 x ptr], ptr @gc_freefunc, i64 0, i64 %95
  %97 = load ptr, ptr %96, align 8, !tbaa !77
  %98 = load ptr, ptr %4, align 8, !tbaa !4
  %99 = load ptr, ptr %8, align 8, !tbaa !28
  call void %97(ptr noundef %98, ptr noundef %99)
  br label %100

100:                                              ; preds = %89, %47
  br label %15, !llvm.loop !78

101:                                              ; preds = %25
  %102 = load ptr, ptr %5, align 8, !tbaa !26
  call void @llvm.lifetime.end.p0(i64 8, ptr %8) #7
  call void @llvm.lifetime.end.p0(i64 4, ptr %7) #7
  ret ptr %102
}