; Function Attrs: nounwind uwtable
define internal fastcc noundef ptr @gc_sweep(ptr noundef %0, ptr noundef captures(ret: address, provenance) %1, i32 noundef range(i32 -1, 41) %2) unnamed_addr #0 {
  %4 = getelementptr inbounds nuw i8, ptr %0, i64 32
  %5 = load i8, ptr %4, align 8, !tbaa !35
  %6 = xor i8 %5, 3
  %7 = load i64, ptr %1, align 8, !tbaa !22
  %.not25 = icmp eq i64 %7, 0
  br i1 %.not25, label %.critedge, label %.lr.ph

.lr.ph:                                           ; preds = %3
  %8 = getelementptr inbounds nuw i8, ptr %0, i64 40
  br label %9

9:                                                ; preds = %.lr.ph, %42
  %10 = phi i64 [ %7, %.lr.ph ], [ %43, %42 ]
  %.027 = phi ptr [ %1, %.lr.ph ], [ %.1, %42 ]
  %.02126 = phi i32 [ %2, %.lr.ph ], [ %12, %42 ]
  %11 = inttoptr i64 %10 to ptr
  %12 = add i32 %.02126, -1
  %.not23 = icmp eq i32 %.02126, 0
  br i1 %.not23, label %.critedge, label %13

13:                                               ; preds = %9
  %14 = getelementptr inbounds nuw i8, ptr %11, i64 9
  %15 = load i8, ptr %14, align 1, !tbaa !23
  %16 = icmp eq i8 %15, 6
  br i1 %16, label %17, label %20

17:                                               ; preds = %13
  %18 = getelementptr inbounds nuw i8, ptr %11, i64 64
  %19 = tail call fastcc ptr @gc_sweep(ptr noundef nonnull %0, ptr noundef nonnull %18, i32 noundef -1)
  br label %20

20:                                               ; preds = %17, %13
  %21 = getelementptr inbounds nuw i8, ptr %11, i64 8
  %22 = load i8, ptr %21, align 8, !tbaa !23
  %23 = xor i8 %22, 3
  %24 = and i8 %23, %6
  %.not24 = icmp eq i8 %24, 0
  br i1 %.not24, label %30, label %25

25:                                               ; preds = %20
  %26 = and i8 %22, -8
  %27 = load i8, ptr %4, align 8, !tbaa !35
  %28 = and i8 %27, 3
  %29 = or disjoint i8 %28, %26
  store i8 %29, ptr %21, align 8, !tbaa !23
  br label %42

30:                                               ; preds = %20
  %31 = load i64, ptr %11, align 8, !tbaa !23
  store i64 %31, ptr %.027, align 8, !tbaa !22
  %32 = load i64, ptr %8, align 8, !tbaa !34
  %33 = icmp eq i64 %10, %32
  br i1 %33, label %34, label %35

34:                                               ; preds = %30
  store i64 %31, ptr %8, align 8, !tbaa !34
  br label %35

35:                                               ; preds = %34, %30
  %36 = load i8, ptr %14, align 1, !tbaa !23
  %37 = zext i8 %36 to i64
  %38 = add nuw nsw i64 %37, 4294967292
  %39 = and i64 %38, 4294967295
  %40 = getelementptr inbounds nuw [9 x ptr], ptr @gc_freefunc, i64 0, i64 %39
  %41 = load ptr, ptr %40, align 8, !tbaa !64
  tail call void %41(ptr noundef nonnull %0, ptr noundef nonnull %11) #8
  br label %42

42:                                               ; preds = %35, %25
  %.1 = phi ptr [ %11, %25 ], [ %.027, %35 ]
  %43 = load i64, ptr %.1, align 8, !tbaa !22
  %.not = icmp eq i64 %43, 0
  br i1 %.not, label %.critedge, label %9, !llvm.loop !65

.critedge:                                        ; preds = %9, %42, %3
  %.0.lcssa = phi ptr [ %1, %3 ], [ %.1, %42 ], [ %.027, %9 ]
  ret ptr %.0.lcssa
}